; Function Attrs: mustprogress nounwind uwtable
define dso_local range(i32 0, -1) i32 @_ZNK5clang13SourceManager13getNextFileIDENS_6FileIDE(ptr noundef nonnull align 8 dereferenceable(696) %0, i32 %1) local_unnamed_addr #1 align 2 {
  %3 = icmp eq i32 %1, 0
  br i1 %3, label %._crit_edge, label %4

4:                                                ; preds = %2
  %5 = icmp sgt i32 %1, 0
  br i1 %5, label %6, label %11

6:                                                ; preds = %4
  %7 = add nuw nsw i32 %1, 1
  %8 = getelementptr inbounds nuw i8, ptr %0, i64 184
  %9 = tail call noundef i64 @_ZNK4llvm15SmallVectorBaseIjE4sizeEv(ptr noundef nonnull align 8 dereferenceable(16) %8) #26
  %10 = trunc i64 %9 to i32
  %.not = icmp ult i32 %7, %10
  %spec.select = select i1 %.not, i32 %7, i32 0
  br label %._crit_edge

11:                                               ; preds = %4
  %12 = icmp samesign ugt i32 %1, -3
  %.pre = add nuw nsw i32 %1, 1
  %spec.select6 = select i1 %12, i32 0, i32 %.pre
  br label %._crit_edge

._crit_edge:                                      ; preds = %11, %6, %2
  %.sroa.05.0 = phi i32 [ 0, %2 ], [ %spec.select6, %11 ], [ %spec.select, %6 ]
  ret i32 %.sroa.05.0
}